target datalayout = "e-m:e-p270:32:32-p271:32:32-p272:64:64-i64:64-i128:128-f80:128-n8:16:32:64-S128"
target triple = "x86_64-pc-linux-gnu"

; Function Attrs: nounwind uwtable
define internal i32 @readU32FromChar(ptr noundef %0) #0 {
  %2 = alloca ptr, align 8
  %3 = alloca i32, align 4
  store ptr %0, ptr %2, align 8, !tbaa !8
  call void @llvm.lifetime.start.p0(i64 4, ptr %3) #12
  store i32 0, ptr %3, align 4, !tbaa !4
  br label %4

4:                                                ; preds = %18, %1
  %5 = load ptr, ptr %2, align 8, !tbaa !8
  %6 = load ptr, ptr %5, align 8, !tbaa !11
  %7 = load i8, ptr %6, align 1, !tbaa !19
  %8 = sext i8 %7 to i32
  %9 = icmp sge i32 %8, 48
  br i1 %9, label %10, label %16

10:                                               ; preds = %4
  %11 = load ptr, ptr %2, align 8, !tbaa !8
  %12 = load ptr, ptr %11, align 8, !tbaa !11
  %13 = load i8, ptr %12, align 1, !tbaa !19
  %14 = sext i8 %13 to i32
  %15 = icmp sle i32 %14, 57
  br label %16

16:                                               ; preds = %10, %4
  %17 = phi i1 [ false, %4 ], [ %15, %10 ]
  br i1 %17, label %18, label %31

18:                                               ; preds = %16
  %19 = load i32, ptr %3, align 4, !tbaa !4
  %20 = mul i32 %19, 10
  store i32 %20, ptr %3, align 4, !tbaa !4
  %21 = load ptr, ptr %2, align 8, !tbaa !8
  %22 = load ptr, ptr %21, align 8, !tbaa !11
  %23 = load i8, ptr %22, align 1, !tbaa !19
  %24 = sext i8 %23 to i32
  %25 = sub nsw i32 %24, 48
  %26 = load i32, ptr %3, align 4, !tbaa !4
  %27 = add i32 %26, %25
  store i32 %27, ptr %3, align 4, !tbaa !4
  %28 = load ptr, ptr %2, align 8, !tbaa !8
  %29 = load ptr, ptr %28, align 8, !tbaa !11
  %30 = getelementptr inbounds nuw i8, ptr %29, i32 1
  store ptr %30, ptr %28, align 8, !tbaa !11
  br label %4, !llvm.loop !26

31:                                               ; preds = %16
  %32 = load ptr, ptr %2, align 8, !tbaa !8
  %33 = load ptr, ptr %32, align 8, !tbaa !11
  %34 = load i8, ptr %33, align 1, !tbaa !19
  %35 = sext i8 %34 to i32
  %36 = icmp eq i32 %35, 75
  br i1 %36, label %43, label %37

37:                                               ; preds = %31
  %38 = load ptr, ptr %2, align 8, !tbaa !8
  %39 = load ptr, ptr %38, align 8, !tbaa !11
  %40 = load i8, ptr %39, align 1, !tbaa !19
  %41 = sext i8 %40 to i32
  %42 = icmp eq i32 %41, 77
  br i1 %42, label %43, label %78

43:                                               ; preds = %37, %31
  %44 = load i32, ptr %3, align 4, !tbaa !4
  %45 = shl i32 %44, 10
  store i32 %45, ptr %3, align 4, !tbaa !4
  %46 = load ptr, ptr %2, align 8, !tbaa !8
  %47 = load ptr, ptr %46, align 8, !tbaa !11
  %48 = load i8, ptr %47, align 1, !tbaa !19
  %49 = sext i8 %48 to i32
  %50 = icmp eq i32 %49, 77
  br i1 %50, label %51, label %54

51:                                               ; preds = %43
  %52 = load i32, ptr %3, align 4, !tbaa !4
  %53 = shl i32 %52, 10
  store i32 %53, ptr %3, align 4, !tbaa !4
  br label %54

54:                                               ; preds = %51, %43
  %55 = load ptr, ptr %2, align 8, !tbaa !8
  %56 = load ptr, ptr %55, align 8, !tbaa !11
  %57 = getelementptr inbounds nuw i8, ptr %56, i32 1
  store ptr %57, ptr %55, align 8, !tbaa !11
  %58 = load ptr, ptr %2, align 8, !tbaa !8
  %59 = load ptr, ptr %58, align 8, !tbaa !11
  %60 = load i8, ptr %59, align 1, !tbaa !19
  %61 = sext i8 %60 to i32
  %62 = icmp eq i32 %61, 105
  br i1 %62, label %63, label %67

63:                                               ; preds = %54
  %64 = load ptr, ptr %2, align 8, !tbaa !8
  %65 = load ptr, ptr %64, align 8, !tbaa !11
  %66 = getelementptr inbounds nuw i8, ptr %65, i32 1
  store ptr %66, ptr %64, align 8, !tbaa !11
  br label %67

67:                                               ; preds = %63, %54
  %68 = load ptr, ptr %2, align 8, !tbaa !8
  %69 = load ptr, ptr %68, align 8, !tbaa !11
  %70 = load i8, ptr %69, align 1, !tbaa !19
  %71 = sext i8 %70 to i32
  %72 = icmp eq i32 %71, 66
  br i1 %72, label %73, label %77

73:                                               ; preds = %67
  %74 = load ptr, ptr %2, align 8, !tbaa !8
  %75 = load ptr, ptr %74, align 8, !tbaa !11
  %76 = getelementptr inbounds nuw i8, ptr %75, i32 1
  store ptr %76, ptr %74, align 8, !tbaa !11
  br label %77

77:                                               ; preds = %73, %67
  br label %78

78:                                               ; preds = %77, %37
  %79 = load i32, ptr %3, align 4, !tbaa !4
  call void @llvm.lifetime.end.p0(i64 4, ptr %3) #12
  ret i32 %79
}