; Function Attrs: nofree norecurse nosync nounwind memory(read, argmem: readwrite, inaccessiblemem: none) uwtable
define internal fastcc i32 @readU32FromChar(ptr noundef nonnull captures(none) %0) unnamed_addr #9 {
  %.promoted = load ptr, ptr %0, align 8, !tbaa !14
  %2 = load i8, ptr %.promoted, align 1, !tbaa !4
  %3 = add i8 %2, -48
  %or.cond19 = icmp ult i8 %3, 10
  br i1 %or.cond19, label %.lr.ph, label %.critedge

.lr.ph:                                           ; preds = %1, %.lr.ph
  %4 = phi i8 [ %10, %.lr.ph ], [ %2, %1 ]
  %.020 = phi i32 [ %8, %.lr.ph ], [ 0, %1 ]
  %5 = phi ptr [ %9, %.lr.ph ], [ %.promoted, %1 ]
  %6 = mul i32 %.020, 10
  %narrow = add nsw i8 %4, -48
  %7 = zext nneg i8 %narrow to i32
  %8 = add i32 %6, %7
  %9 = getelementptr inbounds nuw i8, ptr %5, i64 1
  store ptr %9, ptr %0, align 8, !tbaa !14
  %10 = load i8, ptr %9, align 1, !tbaa !4
  %11 = add i8 %10, -48
  %or.cond = icmp ult i8 %11, 10
  br i1 %or.cond, label %.lr.ph, label %.critedge, !llvm.loop !7

.critedge:                                        ; preds = %.lr.ph, %1
  %.0.lcssa = phi i32 [ 0, %1 ], [ %8, %.lr.ph ]
  %.lcssa18 = phi ptr [ %.promoted, %1 ], [ %9, %.lr.ph ]
  %.lcssa = phi i8 [ %2, %1 ], [ %10, %.lr.ph ]
  switch i8 %.lcssa, label %26 [
    i8 75, label %12
    i8 77, label %12
  ]

12:                                               ; preds = %.critedge, %.critedge
  %13 = icmp eq i8 %.lcssa, 77
  %spec.select.v = select i1 %13, i32 20, i32 10
  %spec.select = shl i32 %.0.lcssa, %spec.select.v
  %14 = getelementptr inbounds nuw i8, ptr %.lcssa18, i64 1
  store ptr %14, ptr %0, align 8, !tbaa !14
  %15 = load i8, ptr %14, align 1, !tbaa !4
  %16 = icmp eq i8 %15, 105
  br i1 %16, label %17, label %19

17:                                               ; preds = %12
  %18 = getelementptr inbounds nuw i8, ptr %.lcssa18, i64 2
  store ptr %18, ptr %0, align 8, !tbaa !14
  %.pre = load i8, ptr %18, align 1, !tbaa !4
  br label %19

19:                                               ; preds = %17, %12
  %20 = phi i8 [ %.pre, %17 ], [ %15, %12 ]
  %21 = phi i64 [ 2, %17 ], [ 1, %12 ]
  %22 = icmp eq i8 %20, 66
  br i1 %22, label %23, label %26

23:                                               ; preds = %19
  %24 = getelementptr inbounds nuw i8, ptr %.lcssa18, i64 %21
  %25 = getelementptr inbounds nuw i8, ptr %24, i64 1
  store ptr %25, ptr %0, align 8, !tbaa !14
  br label %26

26:                                               ; preds = %.critedge, %19, %23
  %.1 = phi i32 [ %spec.select, %23 ], [ %spec.select, %19 ], [ %.0.lcssa, %.critedge ]
  ret i32 %.1
}